(lp0
(lp1
(lp2
F-105.52571283365984
aF21.555516221260042
aF259.6191296230937
aF42.0
aF-179.9231783203908
aI4
aa(lp3
F-356.8999938964844
aF31.0
aF0.0
aF0.0
aa(lp4
F-336.8999938964844
aF31.0
aF0.0
aF0.0
aa(lp5
F-1.0
aF-1.0
aF-1.0
aaa(lp6
(lp7
F-105.52571283365984
aF21.555516221260042
aF259.6191296230937
aF42.0
aF-179.9231783203908
aI4
aa(lp8
F-356.8999938964844
aF31.0
aF0.0
aF0.0
aa(lp9
F-336.8999938964844
aF31.0
aF0.0
aF0.0
aa(lp10
F-1.0
aF-1.0
aF-1.0
aaa(lp11
(lp12
F-105.52571283365984
aF21.555516221260042
aF259.6191296230937
aF42.0
aF-179.9231783203908
aI4
aa(lp13
F-356.8999938964844
aF31.0
aF0.0
aF0.0
aa(lp14
F-336.8999938964844
aF31.0
aF0.0
aF0.0
aa(lp15
F-1.0
aF-1.0
aF-1.0
aaa(lp16
(lp17
F-105.52571283365984
aF21.555516221260042
aF259.6191296230937
aF42.0
aF-179.9231783203908
aI4
aa(lp18
F-356.8999938964844
aF31.0
aF0.0
aF0.0
aa(lp19
F-336.8999938964844
aF31.0
aF0.0
aF0.0
aa(lp20
F-1.0
aF-1.0
aF-1.0
aaa(lp21
(lp22
F-105.52571283365984
aF21.555516221260042
aF259.6191296230937
aF42.0
aF-179.9231783203908
aI4
aa(lp23
F-356.8999938964844
aF31.0
aF0.0
aF0.0
aa(lp24
F-336.8999938964844
aF31.0
aF0.0
aF0.0
aa(lp25
F-1.0
aF-1.0
aF-1.0
aaa(lp26
(lp27
F-105.52571283365984
aF21.555516221260042
aF259.6191296230937
aF42.0
aF-179.9231783203908
aI4
aa(lp28
F-356.8999938964844
aF31.0
aF0.0
aF0.0
aa(lp29
F-336.8999938964844
aF31.0
aF0.0
aF0.0
aa(lp30
F-1.0
aF-1.0
aF-1.0
aaa(lp31
(lp32
F-105.52571283365984
aF21.555516221260042
aF259.6191296230937
aF42.0
aF-179.9231783203908
aI4
aa(lp33
F-356.8999938964844
aF31.0
aF0.0
aF0.0
aa(lp34
F-336.8999938964844
aF31.0
aF0.0
aF0.0
aa(lp35
F-1.0
aF-1.0
aF-1.0
aaa(lp36
(lp37
F-105.52571283365984
aF21.555516221260042
aF259.6191296230937
aF42.0
aF-179.9231783203908
aI4
aa(lp38
F-356.8996276855469
aF30.999996185302734
aF-0.2636413110980116
aF0.0253706075166866
aa(lp39
F-336.8976745605469
aF31.00002670288086
aF0.9476116717838724
aF0.05303267378001175
aa(lp40
F-1.0
aF-1.0
aF-1.0
aaa(lp41
(lp42
F-105.52571283365984
aF21.555516221260042
aF259.6191296230937
aF42.0
aF-179.9231783203908
aI4
aa(lp43
F-356.89874267578125
aF30.994667053222656
aF-87.39604431744411
aF0.04312412817923263
aa(lp44
F-336.8947448730469
aF30.999820709228516
aF268.6009124057423
aF0.0052301172988254855
aa(lp45
F-1.0
aF-1.0
aF-1.0
aaa(lp46
(lp47
F-105.52571283365984
aF21.555516221260042
aF259.6191296230937
aF42.0
aF-179.9231783203908
aI4
aa(lp48
F-356.8993225097656
aF30.99442481994629
aF-88.11790850725055
aF0.019281982549979614
aa(lp49
F-336.89483642578125
aF30.999794006347656
aF153.60125903270287
aF0.0027081808134359667
aa(lp50
F-1.0
aF-1.0
aF-1.0
aaa(lp51
(lp52
F-105.52571283365984
aF21.555516221260042
aF259.6191296230937
aF42.0
aF-179.9231783203908
aI4
aa(lp53
F-356.8994140625
aF30.994306564331055
aF264.2693974365964
aF0.003973261576864886
aa(lp54
F-336.8951416015625
aF30.99978256225586
aF143.1477177521728
aF0.0031831006626901167
aa(lp55
F-1.0
aF-1.0
aF-1.0
aaa(lp56
(lp57
F-105.52571283365984
aF21.555516221260042
aF259.6191296230937
aF42.0
aF-179.9231783203908
aI4
aa(lp58
F-356.89892578125
aF30.994258880615234
aF96.31794463427423
aF0.0076602731502268895
aa(lp59
F-336.8955078125
aF30.999786376953125
aF141.04320382971557
aF0.0026642727160913
aa(lp60
F-1.0
aF-1.0
aF-1.0
aaa(lp61
(lp62
F-105.52571283365984
aF21.555516221260042
aF259.6191296230937
aF42.0
aF-179.9231783203908
aI4
aa(lp63
F-356.89788818359375
aF30.99427604675293
aF93.48271453405029
aF0.015821139890893034
aa(lp64
F-336.89593505859375
aF30.99980926513672
aF139.5467524973875
aF0.0013489106979543127
aa(lp65
F-1.0
aF-1.0
aF-1.0
aaa(lp66
(lp67
F-105.52571283365984
aF21.555516221260042
aF259.6191296230937
aF42.0
aF-179.9231783203908
aI4
aa(lp68
F-356.89739990234375
aF30.994308471679688
aF92.99622705638212
aF0.015788018788497615
aa(lp69
F-336.8959655761719
aF30.999818801879883
aF136.25475470922544
aF0.0008796379291801531
aa(lp70
F-1.0
aF-1.0
aF-1.0
aaa(lp71
(lp72
F-105.52571283365984
aF21.555516221260042
aF259.6191296230937
aF42.0
aF-179.9231783203908
aI4
aa(lp73
F-356.89691162109375
aF30.99436378479004
aF92.54006955818403
aF0.01230446619899055
aa(lp74
F-336.89599609375
aF30.99983787536621
aF135.1068455244017
aF0.0004568909274670609
aa(lp75
F-1.0
aF-1.0
aF-1.0
aaa(lp76
(lp77
F-105.52571283365984
aF21.555516221260042
aF259.6191296230937
aF42.0
aF-179.9231783203908
aI4
aa(lp78
F-356.8967590332031
aF30.994396209716797
aF92.11141235158628
aF0.009386454365644751
aa(lp79
F-336.89605712890625
aF30.999845504760742
aF127.12221302215329
aF0.00028885010208400027
aa(lp80
F-1.0
aF-1.0
aF-1.0
aaa(lp81
(lp82
F-105.52571283365984
aF21.555516221260042
aF259.6191296230937
aF42.0
aF-179.9231783203908
aI4
aa(lp83
F-356.8966369628906
aF30.99444007873535
aF91.4173645927186
aF0.005193752019078567
aa(lp84
F-336.89605712890625
aF30.99984359741211
aF216.49009026381896
aF0.00010065144476803406
aa(lp85
F-1.0
aF-1.0
aF-1.0
aaa(lp86
(lp87
F-105.52571283365984
aF21.555516221260042
aF259.6191296230937
aF42.0
aF-179.9231783203908
aI4
aa(lp88
F-356.8966369628906
aF30.994144439697266
aF82.42530588471448
aF0.00012961277494149786
aa(lp89
F-336.89605712890625
aF30.999835968017578
aF220.21931496280482
aF6.709888149458875e-05
aa(lp90
F-1.0
aF-1.0
aF-1.0
aaa(lp91
(lp92
F-105.52571283365984
aF21.555516221260042
aF259.6191296230937
aF42.0
aF-179.9231783203908
aI4
aa(lp93
F-356.89666748046875
aF30.99399185180664
aF-14.450831146488515
aF6.198630493216418e-05
aa(lp94
F-336.89605712890625
aF30.99983024597168
aF216.208701016785
aF4.06383074761049e-05
aa(lp95
F-1.0
aF-1.0
aF-1.0
aaa(lp96
(lp97
F-105.52571283365984
aF21.555516221260042
aF259.6191296230937
aF42.0
aF-179.9231783203908
aI4
aa(lp98
F-356.89666748046875
aF30.994049072265625
aF-62.77503972141687
aF7.664670037174309e-05
aa(lp99
F-336.89605712890625
aF30.999828338623047
aF221.4426425672945
aF2.380269833904189e-05
aa(lp100
F-1.0
aF-1.0
aF-1.0
aaa(lp101
(lp102
F-105.52571283365984
aF21.555516221260042
aF259.6191296230937
aF42.0
aF-179.9231783203908
aI4
aa(lp103
F-356.8967590332031
aF30.994232177734375
aF-58.54226586292651
aF0.00010822362283916707
aa(lp104
F-336.89605712890625
aF30.999826431274414
aF248.65061769309142
aF8.915627561313263e-06
aa(lp105
F-1.0
aF-1.0
aF-1.0
aaa(lp106
(lp107
F-105.52571283365984
aF21.555516221260042
aF259.6191296230937
aF42.0
aF-179.9231783203908
aI4
aa(lp108
F-356.89678955078125
aF30.994421005249023
aF-62.34163953522487
aF9.26699087463399e-05
aa(lp109
F-336.89605712890625
aF30.99982261657715
aF194.7814079392753
aF1.8691289093051684e-05
aa(lp110
F-1.0
aF-1.0
aF-1.0
aaa(lp111
(lp112
F-105.52571283365984
aF21.555516221260042
aF259.6191296230937
aF42.0
aF-179.9231783203908
aI4
aa(lp113
F-356.89678955078125
aF30.994468688964844
aF-82.43362704194607
aF1.9682490791205422e-05
aa(lp114
F-336.89605712890625
aF30.99982261657715
aF188.80780142879817
aF2.11048411174511e-05
aa(lp115
F-1.0
aF-1.0
aF-1.0
aaa(lp116
(lp117
F-105.52571283365984
aF21.555516221260042
aF259.6191296230937
aF42.0
aF-179.9231783203908
aI4
aa(lp118
F-356.8826904296875
aF30.994754791259766
aF0.9418686001885441
aF0.4439687367461066
aa(lp119
F-336.8908386230469
aF30.999914169311523
aF1.0020116176169391
aF0.2767669890675217
aa(lp120
F-1.0
aF-1.0
aF-1.0
aaa(lp121
(lp122
F-105.52571283365984
aF21.555516221260042
aF259.6191296230937
aF42.0
aF-179.9231783203908
aI4
aa(lp123
F-356.732421875
aF30.99737548828125
aF0.9762383297042945
aF1.4507504080853604
aa(lp124
F-336.7490539550781
aF31.002391815185547
aF0.9995807589156745
aF1.532986276233862
aa(lp125
F-1.0
aF-1.0
aF-1.0
aaa(lp126
(lp127
F-105.52571283365984
aF21.555516221260042
aF259.6191296230937
aF42.0
aF-179.9231783203908
aI4
aa(lp128
F-356.4787902832031
aF31.001789093017578
aF0.9850287167717717
aF2.095587946343372
aa(lp129
F-336.4623107910156
aF31.007402420043945
aF0.9984180750795748
aF2.4727784750236057
aa(lp130
F-1.0
aF-1.0
aF-1.0
aaa(lp131
(lp132
F-105.52571283365984
aF21.555516221260042
aF259.6191296230937
aF42.0
aF-179.9231783203908
aI4
aa(lp133
F-356.2857971191406
aF31.005144119262695
aF0.9886988321645349
aF2.441207272234751
aa(lp134
F-336.2307434082031
aF31.011436462402344
aF0.9976351862859315
aF2.9712445981041142
aa(lp135
F-1.0
aF-1.0
aF-1.0
aaa(lp136
(lp137
F-105.52571283365984
aF21.555516221260042
aF259.6191296230937
aF42.0
aF-179.9231783203908
aI4
aa(lp138
F-356.06201171875
aF31.009037017822266
aF0.991601949790739
aF2.77835301468582
aa(lp139
F-335.9556579589844
aF31.016231536865234
aF0.9967892313950327
aF3.443515219409907
aa(lp140
F-1.0
aF-1.0
aF-1.0
aaa(lp141
(lp142
F-105.52571283365984
aF21.555516221260042
aF259.6191296230937
aF42.0
aF-179.9231783203908
aI4
aa(lp143
F-355.8141784667969
aF31.013349533081055
aF0.9937785793250096
aF3.1045080662435676
aa(lp144
F-335.64666748046875
aF31.021610260009766
aF0.9958986894949408
aF3.885948914073537
aa(lp145
F-1.0
aF-1.0
aF-1.0
aaa(lp146
(lp147
F-105.52571283365984
aF21.555516221260042
aF259.6191296230937
aF42.0
aF-179.9231783203908
aI4
aa(lp148
F-355.1820373535156
aF31.02435302734375
aF0.9967036847553298
aF3.804192107268785
aa(lp149
F-334.8567199707031
aF31.03533935546875
aF0.9939440104017114
aF4.674314488386282
aa(lp150
F-1.0
aF-1.0
aF-1.0
aaa(lp151
(lp152
F-105.52571283365984
aF21.555516221260042
aF259.6191296230937
aF42.0
aF-179.9231783203908
aI4
aa(lp153
F-354.8064880371094
aF31.0308895111084
aF0.9974955199969509
aF4.162297159984283
aa(lp154
F-334.4117126464844
aF31.043052673339844
aF0.9933676212624628
aF4.772566907580938
aa(lp155
F-1.0
aF-1.0
aF-1.0
aaa(lp156
(lp157
F-105.52571283365984
aF21.555516221260042
aF259.6191296230937
aF42.0
aF-179.9231783203908
aI4
aa(lp158
F-354.00341796875
aF31.044872283935547
aF0.9981125480769445
aF4.83690648678735
aa(lp159
F-333.58758544921875
aF31.057342529296875
aF0.994262953247768
aF4.464204588905145
aa(lp160
F-1.0
aF-1.0
aF-1.0
aaa(lp161
(lp162
F-105.52571283365984
aF21.555516221260042
aF259.6191296230937
aF42.0
aF-179.9231783203908
aI4
aa(lp163
F-353.515380859375
aF31.05336570739746
aF0.9980842209274017
aF5.204606543262717
aa(lp164
F-333.1717224121094
aF31.064552307128906
aF0.9945070732055298
aF4.169442728469983
aa(lp165
F-1.0
aF-1.0
aF-0.01607906073331833
aaa(lp166
(lp167
F-105.52571283365984
aF21.555516221260042
aF259.6191296230937
aF42.0
aF-179.9231783203908
aI4
aa(lp168
F-353.0000305175781
aF31.06234359741211
aF0.9979967190823482
aF5.538911859012565
aa(lp169
F-332.7911682128906
aF31.07115364074707
aF0.9951873637448685
aF3.847063054102169
aa(lp170
F0.0
aF0.6575999855995178
aF-0.01607753336429596
aaa(lp171
(lp172
F-105.52571283365984
aF21.555516221260042
aF259.6191296230937
aF42.0
aF-179.9231783203908
aI4
aa(lp173
F-352.45404052734375
aF31.068077087402344
aF0.43174880257474185
aF5.959439673413453
aa(lp174
F-332.4439697265625
aF31.077184677124023
aF0.9958941178249087
aF3.530186569289844
aa(lp175
F0.0
aF0.6575999855995178
aF-0.006194643210619688
aaa(lp176
(lp177
F-105.52571283365984
aF21.555516221260042
aF259.6191296230937
aF42.0
aF-179.9231783203908
aI4
aa(lp178
F-351.3997497558594
aF31.074787139892578
aF0.28810113327722936
aF4.256255074567789
aa(lp179
F-331.83740234375
aF31.087726593017578
aF0.9971435442491311
aF2.9466644832769338
aa(lp180
F-1.0
aF-1.0
aF-1.0
aaa(lp181
(lp182
F-105.52571283365984
aF21.555516221260042
aF259.6191296230937
aF42.0
aF-179.9231783203908
aI4
aa(lp183
F-351.12445068359375
aF31.07697868347168
aF0.3499195916219666
aF2.0620086887031843
aa(lp184
F-331.57611083984375
aF31.09227180480957
aF0.9976297951737931
aF2.6876048439904237
aa(lp185
F-1.0
aF-1.0
aF-1.0
aaa(lp186
(lp187
F-105.52571283365984
aF21.555516221260042
aF259.6191296230937
aF42.0
aF-179.9231783203908
aI4
aa(lp188
F-350.95062255859375
aF31.078935623168945
aF0.2342163302334971
aF1.1848330549574033
aa(lp189
F-331.2288513183594
aF31.09832000732422
aF0.999374925960834
aF2.3379181923021544
aa(lp190
F-1.0
aF-1.0
aF-1.0
aaa(lp191
(lp192
F-105.52571283365984
aF21.555516221260042
aF259.6191296230937
aF42.0
aF-179.9231783203908
aI4
aa(lp193
F-350.75994873046875
aF31.07966423034668
aF0.17793469533434386
aF1.5764668906436217
aa(lp194
F-330.9313659667969
aF31.10350799560547
aF0.998927112458707
aF2.0345084387849455
aa(lp195
F-1.0
aF-1.0
aF-1.0
aaa(lp196
(lp197
F-105.52571283365984
aF21.555516221260042
aF259.6191296230937
aF42.0
aF-179.9231783203908
aI4
aa(lp198
F-350.5165100097656
aF31.08045768737793
aF0.17783458190037213
aF2.0500832600390644
aa(lp199
F-330.6819152832031
aF31.10785484313965
aF0.9992927723976883
aF1.7780775434274552
aa(lp200
F-1.0
aF-1.0
aF-1.0
aaa(lp201
(lp202
F-105.52571283365984
aF21.555516221260042
aF259.6191296230937
aF42.0
aF-179.9231783203908
aI4
aa(lp203
F-350.3027648925781
aF31.081138610839844
aF0.17936817969818517
aF2.4067188418572916
aa(lp204
F-330.52362060546875
aF31.11061668395996
aF0.9995226584509144
aF1.614098697379047
aa(lp205
F-1.0
aF-1.0
aF-1.0
aaa(lp206
(lp207
F-105.52571283365984
aF21.555516221260042
aF259.6191296230937
aF42.0
aF-179.9231783203908
aI4
aa(lp208
F-350.0587158203125
aF31.0819149017334
aF0.1806954614079412
aF2.76294508703217
aa(lp209
F-330.3818359375
aF31.11309242248535
aF0.9997627075569219
aF1.4664649610719815
aa(lp210
F-1.0
aF-1.0
aF-1.0
aaa(lp211
(lp212
F-105.52571283365984
aF21.555516221260042
aF259.6191296230937
aF42.0
aF-179.9231783203908
aI4
aa(lp213
F-349.6201171875
aF31.08331298828125
aF0.18210994047738152
aF3.3106861449763936
aa(lp214
F-330.1893005371094
aF31.116451263427734
aF1.0002117960395904
aF1.2646252396199913
aa(lp215
F-1.0
aF-1.0
aF-1.0
aaa(lp216
(lp217
F-105.52571283365984
aF21.555516221260042
aF259.6191296230937
aF42.0
aF-179.9231783203908
aI4
aa(lp218
F-349.1310729980469
aF31.08487319946289
aF0.18288609950568568
aF3.830722296581979
aa(lp219
F-330.03082275390625
aF31.119218826293945
aF1.000459105029282
aF1.097049105798834
aa(lp220
F-1.0
aF-1.0
aF-1.0
aaa(lp221
(lp222
F-105.52571283365984
aF21.555516221260042
aF259.6191296230937
aF42.0
aF-179.9231783203908
aI4
aa(lp223
F-348.5460510253906
aF31.086742401123047
aF0.18330196631817625
aF4.364002149257119
aa(lp224
F-329.8879699707031
aF31.121713638305664
aF1.0008794076482304
aF0.944342152912024
aa(lp225
F0.0
aF0.6575999855995178
aF-0.0018584280041977763
aaa(lp226
(lp227
F-105.52571283365984
aF21.555516221260042
aF259.6191296230937
aF42.0
aF-179.9231783203908
aI4
aa(lp228
F-348.15521240234375
aF31.087989807128906
aF0.18344704377560778
aF4.5619158920753735
aa(lp229
F-329.81158447265625
aF31.123117446899414
aF1.0178557055000688
aF0.8235494014504307
aa(lp230
F0.0
aF0.6575999855995178
aF-0.0018609600374475121
aaa(lp231
(lp232
F-105.52571283365984
aF21.555516221260042
aF259.6191296230937
aF42.0
aF-179.9231783203908
aI4
aa(lp233
F-347.65301513671875
aF31.08912467956543
aF0.10093972935937141
aF2.5366574551810026
aa(lp234
F-329.72528076171875
aF31.124591827392578
aF0.9784783265123234
aF0.5976951856562808
aa(lp235
F-1.0
aF-1.0
aF-1.0
aaa(lp236
(lp237
F-105.52571283365984
aF21.555516221260042
aF259.6191296230937
aF42.0
aF-179.9231783203908
aI4
aa(lp238
F-347.53619384765625
aF31.089357376098633
aF0.15537324331056768
aF0.2107662261504806
aa(lp239
F-329.6343994140625
aF31.126169204711914
aF0.9915465132650118
aF1.1672313426452163
aa(lp240
F-1.0
aF-1.0
aF-1.0
aaa(lp241
(lp242
F-105.52571283365984
aF21.555516221260042
aF259.6191296230937
aF42.0
aF-179.9231783203908
aI4
aa(lp243
F-347.53826904296875
aF31.0893497467041
aF0.04847267280248573
aF0.002041212082229673
aa(lp244
F-329.44866943359375
aF31.12938117980957
aF0.9908856249098075
aF1.6353044981947222
aa(lp245
F-1.0
aF-1.0
aF-1.0
aaa(lp246
(lp247
F-105.52571283365984
aF21.555516221260042
aF259.6191296230937
aF42.0
aF-179.9231783203908
aI4
aa(lp248
F-347.53875732421875
aF31.0893497467041
aF-0.2406724029693167
aF0.0005286401209247107
aa(lp249
F-329.3093566894531
aF31.131792068481445
aF0.990850849414489
aF1.6795539565716806
aa(lp250
F-1.0
aF-1.0
aF-1.0
aaa(lp251
(lp252
F-105.52571283365984
aF21.555516221260042
aF259.6191296230937
aF42.0
aF-179.9231783203908
aI4
aa(lp253
F-347.53863525390625
aF31.0893497467041
aF180.52841114556145
aF0.0005674913766981623
aa(lp254
F-329.1581115722656
aF31.134408950805664
aF0.9911071365129154
aF1.6416718130411243
aa(lp255
F-1.0
aF-1.0
aF-1.0
aaa(lp256
(lp257
F-105.52571283365984
aF21.555516221260042
aF259.6191296230937
aF42.0
aF-179.9231783203908
aI4
aa(lp258
F-347.5340576171875
aF31.0893611907959
aF0.1575033226971656
aF0.08775313572349222
aa(lp259
F-328.8877258300781
aF31.13908576965332
aF0.9914219358775609
aF1.463810235794808
aa(lp260
F-1.0
aF-1.0
aF-1.0
aaa(lp261
(lp262
F-105.52571283365984
aF21.555516221260042
aF259.6191296230937
aF42.0
aF-179.9231783203908
aI4
aa(lp263
F-347.4830322265625
aF31.089496612548828
aF0.1511359478386688
aF0.4875073406197951
aa(lp264
F-328.6537170410156
aF31.14313316345215
aF0.9917439784500464
aF1.2542412401321028
aa(lp265
F-1.0
aF-1.0
aF-1.0
aaa(lp266
(lp267
F-105.52571283365984
aF21.555516221260042
aF259.6191296230937
aF42.0
aF-179.9231783203908
aI4
aa(lp268
F-347.43408203125
aF31.08963394165039
aF0.16139206101639103
aF0.5927640470239153
aa(lp269
F-328.55023193359375
aF31.144926071166992
aF0.991925295032673
aF1.152869969105441
aa(lp270
F-1.0
aF-1.0
aF-1.0
aaa(lp271
(lp272
F-105.52571283365984
aF21.555516221260042
aF259.6191296230937
aF42.0
aF-179.9231783203908
aI4
aa(lp273
F-347.3787536621094
aF31.08978843688965
aF0.16139399706110388
aF0.6267059871021873
aa(lp274
F-328.4528503417969
aF31.146608352661133
aF0.9921728516897987
aF1.0543015002354863
aa(lp275
F-1.0
aF-1.0
aF-1.0
aaa(lp276
(lp277
F-105.52571283365984
aF21.555516221260042
aF259.6191296230937
aF42.0
aF-179.9231783203908
aI4
aa(lp278
F-347.2970275878906
aF31.090023040771484
aF0.16132304697588104
aF0.6302692243100846
aa(lp279
F-328.32659912109375
aF31.14879608154297
aF0.9922993174915538
aF0.9227976086365062
aa(lp280
F-1.0
aF-1.0
aF-1.0
aaa(lp281
(lp282
F-105.52571283365984
aF21.555516221260042
aF259.6191296230937
aF42.0
aF-179.9231783203908
aI4
aa(lp283
F-347.2388916015625
aF31.090185165405273
aF0.16136733918666663
aF0.6226796169529828
aa(lp284
F-328.2457275390625
aF31.15019416809082
aF0.9926553684621823
aF0.8368003930023007
aa(lp285
F-1.0
aF-1.0
aF-1.0
aaa(lp286
(lp287
F-105.52571283365984
aF21.555516221260042
aF259.6191296230937
aF42.0
aF-179.9231783203908
aI4
aa(lp288
F-347.1564636230469
aF31.090412139892578
aF0.16131918138173915
aF0.6079745548854217
aa(lp289
F-328.1434326171875
aF31.152084350585938
aF1.1347886632048594
aF0.6792133417062095
aa(lp290
F-1.0
aF-1.0
aF-1.0
aaa(lp291
(lp292
F-105.52571283365984
aF21.555516221260042
aF259.6191296230937
aF42.0
aF-179.9231783203908
aI4
aa(lp293
F-347.1026916503906
aF31.090560913085938
aF0.16130714886121897
aF0.6363168542530822
aa(lp294
F-328.09478759765625
aF31.152936935424805
aF1.0280393121679754
aF0.46344781306898364
aa(lp295
F-1.0
aF-1.0
aF-1.0
aaa(lp296
(lp297
F-105.52571283365984
aF21.555516221260042
aF259.6191296230937
aF42.0
aF-179.9231783203908
aI4
aa(lp298
F-346.96002197265625
aF31.0909481048584
aF0.163710064705661
aF0.9632207135031172
aa(lp299
F-328.0008850097656
aF31.154476165771484
aF0.9868600704276957
aF0.5604810584131334
aa(lp300
F-1.0
aF-1.0
aF-1.0
aaa(lp301
(lp302
F-105.52571283365984
aF21.555516221260042
aF259.6191296230937
aF42.0
aF-179.9231783203908
aI4
aa(lp303
F-346.7930908203125
aF31.0914306640625
aF0.16346857139590226
aF1.4134979556765273
aa(lp304
F-327.92413330078125
aF31.15579605102539
aF0.9871011201662274
aF0.5439518277978859
aa(lp305
F-1.0
aF-1.0
aF-1.0
aaa(lp306
(lp307
F-105.52571283365984
aF21.555516221260042
aF259.6191296230937
aF42.0
aF-179.9231783203908
aI4
aa(lp308
F-346.57244873046875
aF31.095130920410156
aF3.4879149006400683
aF1.7486359332490604
aa(lp309
F-327.8543701171875
aF31.15699577331543
aF0.9874092063693304
aF0.49314472542326815
aa(lp310
F-1.0
aF-1.0
aF-1.0
aaa(lp311
(lp312
F-105.52571283365984
aF21.555516221260042
aF259.6191296230937
aF42.0
aF-179.9231783203908
aI4
aa(lp313
F-346.41729736328125
aF31.1048641204834
aF4.3292901055050175
aF1.796540257681178
aa(lp314
F-327.813232421875
aF31.157705307006836
aF0.9875503050045222
aF0.454696662146028
aa(lp315
F-1.0
aF-1.0
aF-1.0
aaa(lp316
(lp317
F-105.52571283365984
aF21.555516221260042
aF259.6191296230937
aF42.0
aF-179.9231783203908
aI4
aa(lp318
F-346.2550048828125
aF31.116195678710938
aF4.910195801650309
aF1.7986717269604724
aa(lp319
F-327.7742614746094
aF31.15837860107422
aF0.9881865929396005
aF0.4143703253344913
aa(lp320
F-1.0
aF-1.0
aF-1.0
aaa(lp321
(lp322
F-105.52571283365984
aF21.555516221260042
aF259.6191296230937
aF42.0
aF-179.9231783203908
aI4
aa(lp323
F-346.00714111328125
aF31.122493743896484
aF1.565029366620697
aF1.769652913683184
aa(lp324
F-327.7211608886719
aF31.15929412841797
aF0.9884055449703786
aF0.35497865965353737
aa(lp325
F-1.0
aF-1.0
aF-1.0
aaa(lp326
(lp327
F-105.52571283365984
aF21.555516221260042
aF259.6191296230937
aF42.0
aF-179.9231783203908
aI4
aa(lp328
F-345.7756042480469
aF31.128700256347656
aF1.5892302635907753
aF1.7351936069953682
aa(lp329
F-327.6797790527344
aF31.16000747680664
aF0.9982277729033636
aF0.2259024496908035
aa(lp330
F-1.0
aF-1.0
aF-1.0
aaa(lp331
(lp332
F-105.52571283365984
aF21.555516221260042
aF259.6191296230937
aF42.0
aF-179.9231783203908
aI4
aa(lp333
F-345.53466796875
aF31.14397430419922
aF2.149729598878453
aF1.6851232796388078
aa(lp334
F-327.6403503417969
aF31.160688400268555
aF0.9899079765374523
aF0.322245173559537
aa(lp335
F-1.0
aF-1.0
aF-1.0
aaa(lp336
(lp337
F-105.52571283365984
aF21.555516221260042
aF259.6191296230937
aF42.0
aF-179.9231783203908
aI4
aa(lp338
F-345.3821716308594
aF31.149131774902344
aF2.0930518878073916
aF1.6607090674090492
aa(lp339
F-327.6095275878906
aF31.161224365234375
aF0.9894041170485325
aF0.34482607509009644
aa(lp340
F-1.0
aF-1.0
aF-1.0
aaa(lp341
(lp342
F-105.52571283365984
aF21.555516221260042
aF259.6191296230937
aF42.0
aF-179.9231783203908
aI4
aa(lp343
F-345.1707458496094
aF31.16762351989746
aF6.26545287648316
aF1.6163768318108664
aa(lp344
F-327.5651550292969
aF31.161989212036133
aF0.9894822213158578
aF0.33393960862228195
aa(lp345
F-1.0
aF-1.0
aF-1.0
aaa(lp346
(lp347
F-105.52571283365984
aF21.555516221260042
aF259.6191296230937
aF42.0
aF-179.9231783203908
aI4
aa(lp348
F-345.03485107421875
aF31.174423217773438
aF2.794246550492604
aF1.5926382014832698
aa(lp349
F-327.5377197265625
aF31.16246223449707
aF0.9898743888967779
aF0.3141625577224298
aa(lp350
F-1.0
aF-1.0
aF-1.0
aaa(lp351
(lp352
F-105.52571283365984
aF21.555516221260042
aF259.6191296230937
aF42.0
aF-179.9231783203908
aI4
aa(lp353
F-344.8949279785156
aF31.18768310546875
aF6.773007249520157
aF1.5624329892709137
aa(lp354
F-327.5108947753906
aF31.16292953491211
aF0.9903023112535979
aF0.28915933453091974
aa(lp355
F-1.0
aF-1.0
aF-1.0
aaa(lp356
(lp357
F-105.52571283365984
aF21.555516221260042
aF259.6191296230937
aF42.0
aF-179.9231783203908
aI4
aa(lp358
F-344.6789245605469
aF31.200077056884766
aF3.294716086701683
aF1.5255306986475052
aa(lp359
F-327.47344970703125
aF31.16357421875
aF0.9911463463249368
aF0.2477499188988369
aa(lp360
F-1.0
aF-1.0
aF-1.0
aaa(lp361
(lp362
F-105.52571283365984
aF21.555516221260042
aF259.6191296230937
aF42.0
aF-179.9231783203908
aI4
aa(lp363
F-344.54156494140625
aF31.207902908325195
aF3.3007027045513038
aF1.5031210293261303
aa(lp364
F-327.4522705078125
aF31.1639404296875
aF0.9918676308782688
aF0.22167497933144725
aa(lp365
F-1.0
aF-1.0
aF-1.0
aaa(lp366
(lp367
F-105.52571283365984
aF21.555516221260042
aF259.6191296230937
aF42.0
aF-179.9231783203908
aI4
aa(lp368
F-344.3267822265625
aF31.223085403442383
aF6.812186020707716
aF1.462235341914339
aa(lp369
F-327.4232177734375
aF31.16444206237793
aF0.9936750845366192
aF0.18309175647135584
aa(lp370
F-1.0
aF-1.0
aF-1.0
aaa(lp371
(lp372
F-105.52571283365984
aF21.555516221260042
aF259.6191296230937
aF42.0
aF-179.9231783203908
aI4
aa(lp373
F-344.13580322265625
aF31.245893478393555
aF7.728925780679973
aF1.4261197031585655
aa(lp374
F-327.40118408203125
aF31.164825439453125
aF0.9944525525750737
aF0.15133647169421915
aa(lp375
F-1.0
aF-1.0
aF-1.0
aaa(lp376
(lp377
F-105.52571283365984
aF21.555516221260042
aF259.6191296230937
aF42.0
aF-179.9231783203908
aI4
aa(lp378
F-344.00616455078125
aF31.2553768157959
aF4.207299695735798
aF1.4031143184139567
aa(lp379
F-327.3929443359375
aF31.16497230529785
aF1.0063861592360905
aF0.08570760104117654
aa(lp380
F-1.0
aF-1.0
aF-1.0
aaa(lp381
(lp382
F-105.52571283365984
aF21.555516221260042
aF259.6191296230937
aF42.0
aF-179.9231783203908
aI4
aa(lp383
F-343.9425354003906
aF31.25995445251465
aF4.225156558849877
aF1.3926050781346544
aa(lp384
F-327.390625
aF31.165000915527344
aF2.722016449847154
aF0.05330227301626822
aa(lp385
F-1.0
aF-1.0
aF-1.0
aaa(lp386
(lp387
F-105.52571283365984
aF21.555516221260042
aF259.6191296230937
aF42.0
aF-179.9231783203908
aI4
aa(lp388
F-343.75006103515625
aF31.268035888671875
aF0.25932303851434424
aF1.3524141549962425
aa(lp389
F-327.37994384765625
aF31.165067672729492
aF1.0231321130707824
aF0.16210130415991492
aa(lp390
F-1.0
aF-1.0
aF-1.0
aaa(lp391
(lp392
F-105.52571283365984
aF21.555516221260042
aF259.6191296230937
aF42.0
aF-179.9231783203908
aI4
aa(lp393
F-343.56536865234375
aF31.280319213867188
aF3.803261974867173
aF1.3201792679605957
aa(lp394
F-327.3457336425781
aF31.165672302246094
aF1.013859301475757
aF0.29246873790552447
aa(lp395
F-1.0
aF-1.0
aF-1.0
aaa(lp396
(lp397
F-105.52571283365984
aF21.555516221260042
aF259.6191296230937
aF42.0
aF-179.9231783203908
aI4
aa(lp398
F-343.45135498046875
aF31.287940979003906
aF3.7941144245179594
aF1.301164344633145
aa(lp399
F-327.31903076171875
aF31.166147232055664
aF1.0136404303930235
aF0.3126931461880405
aa(lp400
F-1.0
aF-1.0
aF-1.0
aaa(lp401
(lp402
F-105.52571283365984
aF21.555516221260042
aF259.6191296230937
aF42.0
aF-179.9231783203908
aI4
aa(lp403
F-343.28924560546875
aF31.298723220825195
aF3.7932477895666414
aF1.2740364281220287
aa(lp404
F-327.27978515625
aF31.166839599609375
aF1.0137588074989774
aF0.30395908421334816
aa(lp405
F-1.0
aF-1.0
aF-1.0
aaa(lp406
(lp407
F-105.52571283365984
aF21.555516221260042
aF259.6191296230937
aF42.0
aF-179.9231783203908
aI4
aa(lp408
F-343.1252746582031
aF31.3011531829834
aF-0.35325538820464675
aF1.2379768347863331
aa(lp409
F-327.2419128417969
aF31.167509078979492
aF1.014488204814713
aF0.2746137790035548
aa(lp410
F-1.0
aF-1.0
aF-1.0
aaa(lp411
(lp412
F-105.52571283365984
aF21.555516221260042
aF259.6191296230937
aF42.0
aF-179.9231783203908
aI4
aa(lp413
F-343.0138244628906
aF31.30748748779297
aF3.2355296107212648
aF1.2177950281741425
aa(lp414
F-327.2181396484375
aF31.167930603027344
aF1.0149034476417076
aF0.25020665163585526
aa(lp415
F-1.0
aF-1.0
aF-1.0
aaa(lp416
(lp417
F-105.52571283365984
aF21.555516221260042
aF259.6191296230937
aF42.0
aF-179.9231783203908
aI4
aa(lp418
F-342.89581298828125
aF31.314273834228516
aF3.223248559972379
aF1.1978411634086006
aa(lp419
F-327.19708251953125
aF31.16830825805664
aF1.0276459343504156
aF0.13074827624937296
aa(lp420
F-1.0
aF-1.0
aF-1.0
aaa(lp421
(lp422
F-105.52571283365984
aF21.555516221260042
aF259.6191296230937
aF42.0
aF-179.9231783203908
aI4
aa(lp423
F-342.7839050292969
aF31.320627212524414
aF3.227971731071757
aF1.1788337942292402
aa(lp424
F-327.1873779296875
aF31.168418884277344
aF-0.1550488795897945
aF0.0751253882029352
aa(lp425
F-1.0
aF-1.0
aF-1.0
aaa(lp426
(lp427
F-105.52571283365984
aF21.555516221260042
aF259.6191296230937
aF42.0
aF-179.9231783203908
aI4
aa(lp428
F-342.61773681640625
aF31.330039978027344
aF3.236873860601532
aF1.1505079446602993
aa(lp429
F-327.1646728515625
aF31.168832778930664
aF1.0272171514883002
aF0.20307393579377853
aa(lp430
F-1.0
aF-1.0
aF-1.0
aaa(lp431
(lp432
F-105.52571283365984
aF21.555516221260042
aF259.6191296230937
aF42.0
aF-179.9231783203908
aI4
aa(lp433
F-342.47454833984375
aF31.339916229248047
aF6.676170732886663
aF1.1219663816707504
aa(lp434
F-327.1369323730469
aF31.169330596923828
aF1.0251718471296012
aF0.2265220628219388
aa(lp435
F-1.0
aF-1.0
aF-1.0
aaa(lp436
(lp437
F-105.52571283365984
aF21.555516221260042
aF259.6191296230937
aF42.0
aF-179.9231783203908
aI4
aa(lp438
F-342.3710021972656
aF31.351993560791016
aF7.409320328599185
aF1.100412178935475
aa(lp439
F-327.1158752441406
aF31.169708251953125
aF1.0260377937113057
aF0.22060276160418363
aa(lp440
F-1.0
aF-1.0
aF-1.0
aaa(lp441
(lp442
F-105.52571283365984
aF21.555516221260042
aF259.6191296230937
aF42.0
aF-179.9231783203908
aI4
aa(lp443
F-342.2317199707031
aF31.36903953552246
aF7.958578662459587
aF1.076093498795498
aa(lp444
F-327.08880615234375
aF31.170194625854492
aF1.0261167309549142
aF0.19892926283217685
aa(lp445
F-1.0
aF-1.0
aF-1.0
aaa(lp446
(lp447
F-105.52571283365984
aF21.555516221260042
aF259.6191296230937
aF42.0
aF-179.9231783203908
aI4
aa(lp448
F-342.0831604003906
aF31.39659881591797
aF12.45239136908478
aF1.1046042486454768
aa(lp449
F-327.0631103515625
aF31.170656204223633
aF1.0281572961174053
aF0.16949521515295884
aa(lp450
F-1.0
aF-1.0
aF-1.0
aaa(lp451
(lp452
F-105.52571283365984
aF21.555516221260042
aF259.6191296230937
aF42.0
aF-179.9231783203908
aI4
aa(lp453
F-341.90875244140625
aF31.413917541503906
aF5.437918724494181
aF1.4818223200796794
aa(lp454
F-327.04241943359375
aF31.1710262298584
aF1.0305230464861486
aF0.14130970598688075
aa(lp455
F-1.0
aF-1.0
aF-1.0
aaa(lp456
(lp457
F-105.52571283365984
aF21.555516221260042
aF259.6191296230937
aF42.0
aF-179.9231783203908
aI4
aa(lp458
F-341.7543640136719
aF31.428483963012695
aF5.485291230899913
aF1.745006389275097
aa(lp459
F-327.0320129394531
aF31.171215057373047
aF1.0593696328499305
aF0.04603902394527743
aa(lp460
F-1.0
aF-1.0
aF-1.0
aaa(lp461
(lp462
F-105.52571283365984
aF21.555516221260042
aF259.6191296230937
aF42.0
aF-179.9231783203908
aI4
aa(lp463
F-341.51861572265625
aF31.45099449157715
aF5.483377554498641
aF1.871854196010017
aa(lp464
F-327.02197265625
aF31.17140769958496
aF0.26170558285065487
aF0.08400327424106938
aa(lp465
F-1.0
aF-1.0
aF-1.0
aaa(lp466
(lp467
F-105.52571283365984
aF21.555516221260042
aF259.6191296230937
aF42.0
aF-179.9231783203908
aI4
aa(lp468
F-341.25604248046875
aF31.476112365722656
aF5.482240325284665
aF2.0531464350261346
aa(lp469
F-326.9812316894531
aF31.172109603881836
aF1.0227444595472714
aF0.4053767617514376
aa(lp470
F-1.0
aF-1.0
aF-1.0
aaa(lp471
(lp472
F-105.52571283365984
aF21.555516221260042
aF259.6191296230937
aF42.0
aF-179.9231783203908
aI4
aa(lp473
F-340.9736328125
aF31.503135681152344
aF5.471956025398886
aF2.089602128037689
aa(lp474
F-326.9136962890625
aF31.17331314086914
aF1.0220109443345806
aF0.5427728084373942
aa(lp475
F-1.0
aF-1.0
aF-1.0
aaa(lp476
(lp477
F-105.52571283365984
aF21.555516221260042
aF259.6191296230937
aF42.0
aF-179.9231783203908
aI4
aa(lp478
F-340.6848449707031
aF31.530780792236328
aF5.4656971071099845
aF2.0579882736626156
aa(lp479
F-326.8363342285156
aF31.174692153930664
aF1.022389734872594
aF0.5489612966320884
aa(lp480
F-1.0
aF-1.0
aF-1.0
aaa(lp481
(lp482
F-105.52571283365984
aF21.555516221260042
aF259.6191296230937
aF42.0
aF-179.9231783203908
aI4
aa(lp483
F-340.3985595703125
aF31.554943084716797
aF2.281018310510999
aF2.0056871735270816
aa(lp484
F-326.7618408203125
aF31.1760196685791
aF1.022686620121842
aF0.5031578952756567
aa(lp485
F-1.0
aF-1.0
aF-1.0
aaa(lp486
(lp487
F-105.52571283365984
aF21.555516221260042
aF259.6191296230937
aF42.0
aF-179.9231783203908
aI4
aa(lp488
F-340.12750244140625
aF31.568145751953125
aF4.475488191189572
aF1.950879995131957
aa(lp489
F-326.70074462890625
aF31.17705535888672
aF0.8319992249550456
aF0.353449802871898
aa(lp490
F-1.0
aF-1.0
aF-1.0
aaa(lp491
(lp492
F-105.52571283365984
aF21.555516221260042
aF259.6191296230937
aF42.0
aF-179.9231783203908
aI4
aa(lp493
F-339.9605712890625
aF31.582103729248047
aF4.567392344052649
aF1.9218518266296933
aa(lp494
F-326.6746826171875
aF31.177568435668945
aF0.8116704155090834
aF0.2532727342027768
aa(lp495
F-1.0
aF-1.0
aF-1.0
aaa(lp496
(lp497
F-105.52571283365984
aF21.555516221260042
aF259.6191296230937
aF42.0
aF-179.9231783203908
aI4
aa(lp498
F-339.7314453125
aF31.600521087646484
aF4.531733253514636
aF1.904260204456721
aa(lp499
F-326.5995788574219
aF31.1789493560791
aF1.0127339673519569
aF0.9641590601834299
aa(lp500
F-1.0
aF-1.0
aF-1.0
aaa(lp501
(lp502
F-105.52571283365984
aF21.555516221260042
aF259.6191296230937
aF42.0
aF-179.9231783203908
aI4
aa(lp503
F-339.477294921875
aF31.620737075805664
aF4.532101187115812
aF2.092007634865114
aa(lp504
F-326.4291076660156
aF31.18196678161621
aF1.0118891764970295
aF1.5849270079322244
aa(lp505
F-1.0
aF-1.0
aF-1.0
aaa(lp506
(lp507
F-105.52571283365984
aF21.555516221260042
aF259.6191296230937
aF42.0
aF-179.9231783203908
aI4
aa(lp508
F-339.18707275390625
aF31.6437931060791
aF4.536319730329415
aF2.4847305017203922
aa(lp509
F-326.2164001464844
aF31.18572425842285
aF1.0119338154338098
aF1.710816891540078
aa(lp510
F0.0
aF0.6575999855995178
aF-0.07783292233943939
aaa(lp511
(lp512
F-105.52571283365984
aF21.555516221260042
aF259.6191296230937
aF42.0
aF-179.9231783203908
aI4
aa(lp513
F-338.81884765625
aF31.67014503479004
aF2.3734691985649303
aF2.69131421704435
aa(lp514
F-325.98773193359375
aF31.189760208129883
aF1.0121510223074228
aF1.6315229462373917
aa(lp515
F0.0
aF0.6575999855995178
aF-0.04008405655622482
aaa(lp516
(lp517
F-105.52571283365984
aF21.555516221260042
aF259.6191296230937
aF42.0
aF-179.9231783203908
aI4
aa(lp518
F-338.64129638671875
aF31.676753997802734
aF0.8614864447259174
aF0.001956383881522336
aa(lp519
F-325.71527099609375
aF31.1945743560791
aF1.013588891580169
aF1.425422786078145
aa(lp520
F-1.0
aF-1.0
aF-1.0
aaa(lp521
(lp522
F-105.52571283365984
aF21.555516221260042
aF259.6191296230937
aF42.0
aF-179.9231783203908
aI4
aa(lp523
F-338.642333984375
aF31.67671012878418
aF-15.278864228671178
aF0.0005495175310438322
aa(lp524
F-325.54632568359375
aF31.19753646850586
aF0.9929793054997791
aF1.217611179944164
aa(lp525
F-1.0
aF-1.0
aF-1.0
aaa(lp526
(lp527
F-105.52571283365984
aF21.555516221260042
aF259.6191296230937
aF42.0
aF-179.9231783203908
aI4
aa(lp528
F-338.6424560546875
aF31.676706314086914
aF-88.9422251171054
aF0.0001098339303286894
aa(lp529
F-325.44683837890625
aF31.19931411743164
aF1.0082670161446614
aF1.2110961694903177
aa(lp530
F-1.0
aF-1.0
aF-1.0
aaa(lp531
(lp532
F-105.52571283365984
aF21.555516221260042
aF259.6191296230937
aF42.0
aF-179.9231783203908
aI4
aa(lp533
F-338.6423034667969
aF31.67672348022461
aF187.60483206944687
aF0.00048132422529786553
aa(lp534
F-325.33343505859375
aF31.20132064819336
aF1.0112669878176253
aF1.519950620245812
aa(lp535
F-1.0
aF-1.0
aF-1.0
aaa(lp536
(lp537
F-105.52571283365984
aF21.555516221260042
aF259.6191296230937
aF42.0
aF-179.9231783203908
aI4
aa(lp538
F-338.64276123046875
aF31.67669105529785
aF183.9523147803552
aF0.050359508771500826
aa(lp539
F-325.1784362792969
aF31.204059600830078
aF1.0106845385539296
aF1.8467391882466533
aa(lp540
F-1.0
aF-1.0
aF-1.0
aaa(lp541
(lp542
F-105.52571283365984
aF21.555516221260042
aF259.6191296230937
aF42.0
aF-179.9231783203908
aI4
aa(lp543
F-338.6315612792969
aF31.67750358581543
aF4.106399619349077
aF0.20424163725771993
aa(lp544
F-324.8583679199219
aF31.20970916748047
aF1.0107437483429198
aF1.897928622314602
aa(lp545
F-1.0
aF-1.0
aF-1.0
aaa(lp546
(lp547
F-105.52571283365984
aF21.555516221260042
aF259.6191296230937
aF42.0
aF-179.9231783203908
aI4
aa(lp548
F-338.5908203125
aF31.680419921875
aF4.103263469453932
aF0.36432978280902006
aa(lp549
F-324.6265869140625
aF31.21379852294922
aF1.0110541959267154
aF1.7702804845060396
aa(lp550
F-1.0
aF-1.0
aF-1.0
aaa(lp551
(lp552
F-105.52571283365984
aF21.555516221260042
aF259.6191296230937
aF42.0
aF-179.9231783203908
aI4
aa(lp553
F-338.5164489746094
aF31.685705184936523
aF4.088840370829396
aF0.6093281073764145
aa(lp554
F-324.37371826171875
aF31.218257904052734
aF1.0114775160663503
aF1.5650808513420398
aa(lp555
F-1.0
aF-1.0
aF-1.0
aaa(lp556
(lp557
F-105.52571283365984
aF21.555516221260042
aF259.6191296230937
aF42.0
aF-179.9231783203908
aI4
aa(lp558
F-338.45166015625
aF31.690309524536133
aF4.074467165934871
aF0.8799921201950347
aa(lp559
F-324.2458190917969
aF31.22051429748535
aF1.0116710631131887
aF1.4464054525724115
aa(lp560
F-1.0
aF-1.0
aF-1.0
aaa(lp561
(lp562
F-105.52571283365984
aF21.555516221260042
aF259.6191296230937
aF42.0
aF-179.9231783203908
aI4
aa(lp563
F-338.29693603515625
aF31.701322555541992
aF4.073606826517639
aF1.3631540722827848
aa(lp564
F-324.0658874511719
aF31.22368812561035
aF1.0122519561438148
aF1.231095511432666
aa(lp565
F-1.0
aF-1.0
aF-1.0
aaa(lp566
(lp567
F-105.52571283365984
aF21.555516221260042
aF259.6191296230937
aF42.0
aF-179.9231783203908
aI4
aa(lp568
F-338.1600646972656
aF31.7110652923584
aF4.072898737308659
aF1.5551529780742213
aa(lp569
F-323.9622497558594
aF31.22556495666504
aF1.0301361573273708
aF1.067139603669465
aa(lp570
F-1.0
aF-1.0
aF-1.0
aaa(lp571
(lp572
F-105.52571283365984
aF21.555516221260042
aF259.6191296230937
aF42.0
aF-179.9231783203908
aI4
aa(lp573
F-338.01123046875
aF31.72166633605957
aF4.072547465824942
aF1.6081628657229137
aa(lp574
F-323.85540771484375
aF31.227401733398438
aF1.0136095325799883
aF1.291870207405667
aa(lp575
F-1.0
aF-1.0
aF-1.0
aaa(lp576
(lp577
F-105.52571283365984
aF21.555516221260042
aF259.6191296230937
aF42.0
aF-179.9231783203908
aI4
aa(lp578
F-337.79510498046875
aF31.7370548248291
aF4.0722639236913665
aF1.6005727516730286
aa(lp579
F-323.64373779296875
aF31.231143951416016
aF1.0127482919291522
aF1.7100335169734546
aa(lp580
F-1.0
aF-1.0
aF-1.0
aaa(lp581
(lp582
F-105.52571283365984
aF21.555516221260042
aF259.6191296230937
aF42.0
aF-179.9231783203908
aI4
aa(lp583
F-337.5692443847656
aF31.753135681152344
aF4.072236422317895
aF1.648390608801338
aa(lp584
F-323.4005126953125
aF31.235443115234375
aF1.0129675456386957
aF1.7087429904031277
aa(lp585
F-1.0
aF-1.0
aF-1.0
aaa(lp586
(lp587
F-105.52571283365984
aF21.555516221260042
aF259.6191296230937
aF42.0
aF-179.9231783203908
aI4
aa(lp588
F-337.3157653808594
aF31.771183013916016
aF4.07182768929953
aF1.818324791643598
aa(lp589
F-323.1645812988281
aF31.23961639404297
aF1.0137260192411777
aF1.5668599833652581
aa(lp590
F-1.0
aF-1.0
aF-1.0
aaa(lp591
(lp592
F-105.52571283365984
aF21.555516221260042
aF259.6191296230937
aF42.0
aF-179.9231783203908
aI4
aa(lp593
F-337.13800048828125
aF31.783843994140625
aF4.071756555807413
aF1.8256963051412103
aa(lp594
F-323.0191955566406
aF31.2421875
aF1.0137475234497642
aF1.4156251797845816
aa(lp595
F-1.0
aF-1.0
aF-1.0
aaa(lp596
(lp597
F-105.52571283365984
aF21.555516221260042
aF259.6191296230937
aF42.0
aF-179.9231783203908
aI4
aa(lp598
F-336.8889465332031
aF31.80157470703125
aF4.0718920209049765
aF1.7952560936390765
aa(lp599
F-322.83349609375
aF31.245458602905273
aF1.0106539010268738
aF1.3620987570041254
aa(lp600
F-1.0
aF-1.0
aF-1.0
aaa(lp601
(lp602
F-105.52571283365984
aF21.555516221260042
aF259.6191296230937
aF42.0
aF-179.9231783203908
aI4
aa(lp603
F-336.64227294921875
aF31.819128036499023
aF4.072037500145189
aF1.7529494088229713
aa(lp604
F-322.6014709472656
aF31.249574661254883
aF1.013372097050906
aF1.9259252377482299
aa(lp605
F-1.0
aF-1.0
aF-1.0
aaa(lp606
(lp607
F-105.52571283365984
aF21.555516221260042
aF259.6191296230937
aF42.0
aF-179.9231783203908
aI5
aa(lp608
F-336.4815979003906
aF31.830568313598633
aF4.0723105106977435
aF1.7657290787506024
aa(lp609
F-322.4041442871094
aF31.253068923950195
aF1.0127089028049165
aF2.279548037589084
aa(lp610
F-1.0
aF-1.0
aF-1.0
aaa(lp611
(lp612
F-105.52571283365984
aF21.555516221260042
aF259.6191296230937
aF42.0
aF-179.9231783203908
aI5
aa(lp613
F-336.22412109375
aF31.848894119262695
aF4.07177778779962
aF2.0031556526226413
aa(lp614
F-322.0775146484375
aF31.25884246826172
aF1.0125772838486473
aF2.3691367490593245
aa(lp615
F-1.0
aF-1.0
aF-1.0
aaa(lp616
(lp617
F-105.52571283365984
aF21.555516221260042
aF259.6191296230937
aF42.0
aF-179.9231783203908
aI5
aa(lp618
F-335.9115905761719
aF31.871137619018555
aF4.071407069671557
aF2.461054627445064
aa(lp619
F-321.7577209472656
aF31.26449203491211
aF1.0128883100390642
aF2.2197980456800996
aa(lp620
F-1.0
aF-1.0
aF-1.0
aaa(lp621
(lp622
F-105.52571283365984
aF21.555516221260042
aF259.6191296230937
aF42.0
aF-179.9231783203908
aI5
aa(lp623
F-335.6648254394531
aF31.888700485229492
aF4.071194120789939
aF2.8008926760157253
aa(lp624
F-321.5590515136719
aF31.268001556396484
aF1.013126764853671
aF2.072526202689432
aa(lp625
F-1.0
aF-1.0
aF-1.0
aaa(lp626
(lp627
F-105.52571283365984
aF21.555516221260042
aF259.6191296230937
aF42.0
aF-179.9231783203908
aI5
aa(lp628
F-335.403076171875
aF31.90732765197754
aF4.070993539491724
aF3.1289551906863537
aa(lp629
F-321.38494873046875
aF31.271080017089844
aF1.0133526046533772
aF1.9236243654360194
aa(lp630
F-1.0
aF-1.0
aF-1.0
aaa(lp631
(lp632
F-105.52571283365984
aF21.555516221260042
aF259.6191296230937
aF42.0
aF-179.9231783203908
aI5
aa(lp633
F-335.0888977050781
aF31.9296875
aF4.07091621189451
aF3.4848124639569042
aa(lp634
F-321.2135314941406
aF31.27411460876465
aF1.0137951473699496
aF1.7289235926313966
aa(lp635
F-1.0
aF-1.0
aF-1.0
aaa(lp636
(lp637
F-105.52571283365984
aF21.555516221260042
aF259.6191296230937
aF42.0
aF-179.9231783203908
aI5
aa(lp638
F-334.53631591796875
aF31.96901512145996
aF4.070720368204794
aF4.037085091126392
aa(lp639
F-320.9684143066406
aF31.278461456298828
aF1.0122011605669734
aF1.7381222472418223
aa(lp640
F-1.0
aF-1.0
aF-1.0
aaa(lp641
(lp642
F-105.52571283365984
aF21.555516221260042
aF259.6191296230937
aF42.0
aF-179.9231783203908
aI5
aa(lp643
F-334.1646728515625
aF31.995460510253906
aF4.070673253537141
aF4.368842015295802
aa(lp644
F-320.8020324707031
aF31.281402587890625
aF1.0116307890262812
aF2.013136888891927
aa(lp645
F-1.0
aF-1.0
aF-1.0
aaa(lp646
(lp647
F-105.52571283365984
aF21.555516221260042
aF259.6191296230937
aF42.0
aF-179.9231783203908
aI5
aa(lp648
F-333.7814636230469
aF32.02273178100586
aF4.070617451812477
aF4.685880858670286
aa(lp649
F-320.62225341796875
aF31.28458023071289
aF1.011311135391554
aF2.189365962157501
aa(lp650
F-1.0
aF-1.0
aF-1.0
aaa(lp651
(lp652
F-105.52571283365984
aF21.555516221260042
aF259.6191296230937
aF42.0
aF-179.9231783203908
aI5
aa(lp653
F-332.8818664550781
aF32.086753845214844
aF4.073020247528677
aF5.348250889160674
aa(lp654
F-320.23382568359375
aF31.29143714904785
aF1.0114722180883609
aF2.1104729908578084
aa(lp655
F-1.0
aF-1.0
aF-1.0
aaa(lp656
(lp657
F-105.52571283365984
aF21.555516221260042
aF259.6191296230937
aF42.0
aF-179.9231783203908
aI5
aa(lp658
F-332.1401062011719
aF32.13954544067383
aF4.072544753180015
aF5.880302856696754
aa(lp659
F-319.9678955078125
aF31.296133041381836
aF1.0118484802662335
aF1.9235892544645836
aa(lp660
F-1.0
aF-1.0
aF-1.0
aaa(lp661
(lp662
F-105.52571283365984
aF21.555516221260042
aF259.6191296230937
aF42.0
aF-179.9231783203908
aI5
aa(lp663
F-331.572265625
aF32.17996597290039
aF4.072865747934016
aF6.239247263849315
aa(lp664
F-319.7946472167969
aF31.2991943359375
aF1.0121720802777505
aF1.774453593751881
aa(lp665
F-1.0
aF-1.0
aF-1.0
aaa(lp666
(lp667
F-105.52571283365984
aF21.555516221260042
aF259.6191296230937
aF42.0
aF-179.9231783203908
aI5
aa(lp668
F-330.6893310546875
aF32.24281311035156
aF4.072615577082033
aF6.65321877726767
aa(lp669
F-319.5677795410156
aF31.30320167541504
aF1.0124767745464076
aF1.559702843496314
aa(lp670
F-1.0
aF-1.0
aF-1.0
aaa(lp671
(lp672
F-105.52571283365984
aF21.555516221260042
aF259.6191296230937
aF42.0
aF-179.9231783203908
aI5
aa(lp673
F-329.72698974609375
aF32.31132125854492
aF4.072261622102673
aF7.224460367755089
aa(lp674
F-319.3709716796875
aF31.306659698486328
aF0.9927477048290718
aF1.3088470757375905
aa(lp675
F-1.0
aF-1.0
aF-1.0
aaa(lp676
(lp677
F-105.52571283365984
aF21.555516221260042
aF259.6191296230937
aF42.0
aF-179.9231783203908
aI5
aa(lp678
F-328.6722106933594
aF32.386409759521484
aF4.072180526491128
aF7.684500538902589
aa(lp679
F-319.1901550292969
aF31.30986976623535
aF1.010118290189085
aF1.3395638787248492
aa(lp680
F-1.0
aF-1.0
aF-1.0
aaa(lp681
(lp682
F-105.52571283365984
aF21.555516221260042
aF259.6191296230937
aF42.0
aF-179.9231783203908
aI5
aa(lp683
F-327.9315185546875
aF32.43914794921875
aF4.072174946130529
aF8.030123454132838
aa(lp684
F-319.0611572265625
aF31.312150955200195
aF1.011351942393256
aF1.3845538294565443
aa(lp685
F-1.0
aF-1.0
aF-1.0
aaa(lp686
(lp687
F-105.52571283365984
aF21.555516221260042
aF259.6191296230937
aF42.0
aF-179.9231783203908
aI5
aa(lp688
F-326.31915283203125
aF32.5539436340332
aF4.0722747039181035
aF8.72447297838786
aa(lp689
F-318.8045959472656
aF31.31668472290039
aF1.011738083304793
aF1.270275385299976
aa(lp690
F-1.0
aF-1.0
aF-1.0
aaa(lp691
(lp692
F-105.52571283365984
aF21.555516221260042
aF259.6191296230937
aF42.0
aF-179.9231783203908
aI5
aa(lp693
F-325.51617431640625
aF32.61111068725586
aF4.072342250544322
aF9.04806178472455
aa(lp694
F-318.6944580078125
aF31.318626403808594
aF1.0117923295866913
aF1.1819118098821761
aa(lp695
F-1.0
aF-1.0
aF-1.0
aaa(lp696
(lp697
F-105.52571283365984
aF21.555516221260042
aF259.6191296230937
aF42.0
aF-179.9231783203908
aI5
aa(lp698
F-324.2300109863281
aF32.702674865722656
aF4.074184502074546
aF9.534148373168113
aa(lp699
F-318.5417785644531
aF31.321319580078125
aF1.0121865371844085
aF1.039969834435592
aa(lp700
F-1.0
aF-1.0
aF-1.0
aaa(lp701
(lp702
F-105.52571283365984
aF21.555516221260042
aF259.6191296230937
aF42.0
aF-179.9231783203908
aI5
aa(lp703
F-322.8890380859375
aF32.79817199707031
aF4.0747218626469515
aF10.012298767641822
aa(lp704
F-318.4095153808594
aF31.32365608215332
aF1.0126692970177806
aF0.9053111244957746
aa(lp705
F-1.0
aF-1.0
aF-1.0
aaa(lp706
(lp707
F-105.52571283365984
aF21.555516221260042
aF259.6191296230937
aF42.0
aF-179.9231783203908
aI5
aa(lp708
F-321.90972900390625
aF32.867919921875
aF4.074680268924242
aF10.345539003403779
aa(lp709
F-318.3273620605469
aF31.32510757446289
aF1.0129751956475421
aF0.8178321330100665
aa(lp710
F-1.0
aF-1.0
aF-1.0
aaa(lp711
(lp712
F-105.52571283365984
aF21.555516221260042
aF259.6191296230937
aF42.0
aF-179.9231783203908
aI5
aa(lp713
F-320.80615234375
aF33.15605545043945
aF38.3924283187704
aF4.172052312102818
aa(lp714
F-318.12249755859375
aF31.2933349609375
aF-15.986996825716586
aF8.895775428725342
aa(lp715
F-1.0
aF-1.0
aF-1.0
aaa(lp716
(lp717
F-105.52571283365984
aF21.555516221260042
aF259.6191296230937
aF42.0
aF-179.9231783203908
aI5
aa(lp718
F-320.4675598144531
aF33.330379486083984
aF15.360645870425111
aF3.94774024488865
aa(lp719
F-317.36663818359375
aF31.167999267578125
aF-9.557199204428915
aF7.768450815931839
aa(lp720
F-1.0
aF-1.0
aF-1.0
aaa(lp721
(lp722
F-105.52571283365984
aF21.555516221260042
aF259.6191296230937
aF42.0
aF-179.9231783203908
aI5
aa(lp723
F-320.09295654296875
aF33.3618049621582
aF-3.035905270746982
aF4.268024888634693
aa(lp724
F-316.69940185546875
aF31.0808162689209
aF-7.542085887062462
aF6.9454679498368455
aa(lp725
F-1.0
aF-1.0
aF-1.0
aaa(lp726
(lp727
F-105.52571283365984
aF21.555516221260042
aF259.6191296230937
aF42.0
aF-179.9231783203908
aI5
aa(lp728
F-319.6550598144531
aF33.31866455078125
aF-8.75884572290813
aF4.767154264421255
aa(lp729
F-316.0817565917969
aF31.004005432128906
aF-7.302388615736364
aF6.128328807375421
aa(lp730
F-1.0
aF-1.0
aF-1.0
aaa(lp731
(lp732
F-105.52571283365984
aF21.555516221260042
aF259.6191296230937
aF42.0
aF-179.9231783203908
aI5
aa(lp733
F-318.7309265136719
aF33.14492416381836
aF-12.363046684749396
aF5.505920700298684
aa(lp734
F-315.1192932128906
aF30.882816314697266
aF-7.270877089983397
aF4.770236706861695
aa(lp735
F-1.0
aF-1.0
aF-1.0
aaa(lp736
(lp737
F-105.52571283365984
aF21.555516221260042
aF259.6191296230937
aF42.0
aF-179.9231783203908
aI5
aa(lp738
F-318.2330322265625
aF33.03384017944336
aF-13.028336758657048
aF5.814096404525824
aa(lp739
F-314.7278747558594
aF30.83349609375
aF-7.242838075673643
aF4.208319689524754
aa(lp740
F-1.0
aF-1.0
aF-1.0
aaa(lp741
(lp742
F-105.52571283365984
aF21.555516221260042
aF259.6191296230937
aF42.0
aF-179.9231783203908
aI5
aa(lp743
F-317.3830261230469
aF32.83399963378906
aF-13.544997380543558
aF6.380313921216836
aa(lp744
F-314.1970520019531
aF30.766691207885742
aF-7.215238950022533
aF3.4707693375428708
aa(lp745
F-1.0
aF-1.0
aF-1.0
aaa(lp746
(lp747
F-105.52571283365984
aF21.555516221260042
aF259.6191296230937
aF42.0
aF-179.9231783203908
aI5
aa(lp748
F-316.5606689453125
aF32.635040283203125
aF-13.76177759786073
aF6.874397370585753
aa(lp749
F-313.7966003417969
aF30.716339111328125
aF-7.194615272485617
aF2.971216515631625
aa(lp750
F-1.0
aF-1.0
aF-1.0
aaa(lp751
(lp752
F-105.52571283365984
aF21.555516221260042
aF259.6191296230937
aF42.0
aF-179.9231783203908
aI5
aa(lp753
F-316.1693420410156
aF32.58069610595703
aF-11.68184638910832
aF3.9307255595307757
aa(lp754
F-313.4411315917969
aF30.652587890625
aF-8.756524406896498
aF3.927818868558535
aa(lp755
F-1.0
aF-1.0
aF-1.0
aaa(lp756
(lp757
F-105.52571283365984
aF21.555516221260042
aF259.6191296230937
aF42.0
aF-179.9231783203908
aI5
aa(lp758
F-315.6283874511719
aF32.450870513916016
aF-12.43168934072325
aF3.7503666346793216
aa(lp759
F-312.9376220703125
aF30.5744686126709
aF-9.90358600767331
aF3.78875386478496
aa(lp760
F-1.0
aF-1.0
aF-1.0
aaa(lp761
(lp762
F-105.52571283365984
aF21.555516221260042
aF259.6191296230937
aF42.0
aF-179.9231783203908
aI5
aa(lp763
F-315.1811828613281
aF32.33930969238281
aF-14.034372053808955
aF3.508908277626724
aa(lp764
F-312.4703674316406
aF30.49644660949707
aF-8.4981294586724
aF3.6295063106298575
aa(lp765
F-1.0
aF-1.0
aF-1.0
aaa(lp766
(lp767
F-105.52571283365984
aF21.555516221260042
aF259.6191296230937
aF42.0
aF-179.9231783203908
aI5
aa(lp768
F-314.77679443359375
aF32.234066009521484
aF-13.592799276453663
aF3.297462574267594
aa(lp769
F-312.04119873046875
aF30.43254280090332
aF-7.708821055770622
aF3.427749752346908
aa(lp770
F-1.0
aF-1.0
aF-1.0
aaa(lp771
(lp772
F-105.52571283365984
aF21.555516221260042
aF259.6191296230937
aF42.0
aF-179.9231783203908
aI5
aa(lp773
F-314.3558654785156
aF32.13291549682617
aF-12.576059283779994
aF3.0721885620832188
aa(lp774
F-311.594482421875
aF30.3719482421875
aF-7.028184974143034
aF3.199364682274524
aa(lp775
F-1.0
aF-1.0
aF-1.0
aaa(lp776
(lp777
F-105.52571283365984
aF21.555516221260042
aF259.6191296230937
aF42.0
aF-179.9231783203908
aI5
aa(lp778
F-314.0826416015625
aF32.07061767578125
aF-12.060775582768816
aF2.928423646841396
aa(lp779
F-311.304931640625
aF30.335649490356445
aF-6.579505520050315
aF3.0473481075866578
aa(lp780
F-1.0
aF-1.0
aF-1.0
aaa(lp781
(lp782
F-105.52571283365984
aF21.555516221260042
aF259.6191296230937
aF42.0
aF-179.9231783203908
aI5
aa(lp783
F-313.7048034667969
aF31.990251541137695
aF-11.116488175828607
aF2.736765306517341
aa(lp784
F-310.9061584472656
aF30.28968620300293
aF-5.959718680506989
aF2.840719240415022
aa(lp785
F-1.0
aF-1.0
aF-1.0
aaa(lp786
(lp787
F-105.52571283365984
aF21.555516221260042
aF259.6191296230937
aF42.0
aF-179.9231783203908
aI5
aa(lp788
F-313.33526611328125
aF31.91829490661621
aF-10.158691775274491
aF2.531054246186853
aa(lp789
F-310.51812744140625
aF30.24888038635254
aF-5.472728424583465
aF2.6193846882892413
aa(lp790
F-1.0
aF-1.0
aF-1.0
aaa(lp791
(lp792
F-105.52571283365984
aF21.555516221260042
aF259.6191296230937
aF42.0
aF-179.9231783203908
aI5
aa(lp793
F-313.11328125
aF31.87760353088379
aF-9.752909883598265
aF2.462144653328443
aa(lp794
F-310.28582763671875
aF30.226346969604492
aF-5.002498146915043
aF2.548429506971709
aa(lp795
F-1.0
aF-1.0
aF-1.0
aaa(lp796
(lp797
F-105.52571283365984
aF21.555516221260042
aF259.6191296230937
aF42.0
aF-179.9231783203908
aI5
aa(lp798
F-312.8806457519531
aF31.83614730834961
aF-9.301961431177682
aF2.577669532276517
aa(lp799
F-310.04241943359375
aF30.205184936523438
aF-4.466410917362534
aF2.6699493677061406
aa(lp800
F-1.0
aF-1.0
aF-1.0
aaa(lp801
(lp802
F-105.52571283365984
aF21.555516221260042
aF259.6191296230937
aF42.0
aF-179.9231783203908
aI4
aa(lp803
F-312.51141357421875
aF31.774782180786133
aF-8.48678157762331
aF2.7147470974083516
aa(lp804
F-309.6568298339844
aF30.17469596862793
aF-4.109376423579373
aF2.8046824064896314
aa(lp805
F-1.0
aF-1.0
aF-1.0
aaa(lp806
(lp807
F-105.52571283365984
aF21.555516221260042
aF259.6191296230937
aF42.0
aF-179.9231783203908
aI4
aa(lp808
F-312.1662292480469
aF31.722612380981445
aF-7.835310709201796
aF2.6860906739329735
aa(lp809
F-309.2974853515625
aF30.14830207824707
aF-3.7749813370781107
aF2.7660563053640033
aa(lp810
F-1.0
aF-1.0
aF-1.0
aaa(lp811
(lp812
F-105.52571283365984
aF21.555516221260042
aF259.6191296230937
aF42.0
aF-179.9231783203908
aI4
aa(lp813
F-311.9327392578125
aF31.69027328491211
aF-7.300050844938794
aF2.6119427446611554
aa(lp814
F-309.055419921875
aF30.131887435913086
aF-3.4828399333326248
aF2.6853493818605862
aa(lp815
F-1.0
aF-1.0
aF-1.0
aaa(lp816
(lp817
F-105.52571283365984
aF21.555516221260042
aF259.6191296230937
aF42.0
aF-179.9231783203908
aI4
aa(lp818
F-311.6337890625
aF31.655059814453125
aF-4.940555194371372
aF2.430414089082434
aa(lp819
F-308.7469787597656
aF30.115140914916992
aF-2.480708366691752
aF2.4822575979888413
aa(lp820
F-1.0
aF-1.0
aF-1.0
aaa(lp821
(lp822
F-105.52571283365984
aF21.555516221260042
aF259.6191296230937
aF42.0
aF-179.9231783203908
aI4
aa(lp823
F-311.3226013183594
aF31.62034034729004
aF-6.5239713590596535
aF2.168875689158812
aa(lp824
F-308.42645263671875
aF30.099830627441406
aF-2.8266980609807324
aF2.224057470510164
aa(lp825
F-1.0
aF-1.0
aF-1.0
aaa(lp826
(lp827
F-105.52571283365984
aF21.555516221260042
aF259.6191296230937
aF42.0
aF-179.9231783203908
aI4
aa(lp828
F-311.1331481933594
aF31.59853744506836
aF-6.158084471802511
aF2.0037283818536045
aa(lp829
F-308.23114013671875
aF30.08984375
aF-2.6897338416616945
aF2.0533447823049427
aa(lp830
F-1.0
aF-1.0
aF-1.0
aaa(lp831
(lp832
F-105.52571283365984
aF21.555516221260042
aF259.6191296230937
aF42.0
aF-179.9231783203908
aI4
aa(lp833
F-310.88397216796875
aF31.571239471435547
aF-6.0643823339731
aF1.7579998931437257
aa(lp834
F-307.97479248046875
aF30.077579498291016
aF-2.249998017015545
aF1.7907071164334523
aa(lp835
F-1.0
aF-1.0
aF-1.0
aaa(lp836
(lp837
F-105.52571283365984
aF21.555516221260042
aF259.6191296230937
aF42.0
aF-179.9231783203908
aI4
aa(lp838
F-310.74481201171875
aF31.554412841796875
aF-7.239783025826747
aF1.7118621005841432
aa(lp839
F-307.8331298828125
aF30.072654724121094
aF-1.7422102329781328
aF1.7202122916549099
aa(lp840
F-1.0
aF-1.0
aF-1.0
aaa(lp841
(lp842
F-105.52571283365984
aF21.555516221260042
aF259.6191296230937
aF42.0
aF-179.9231783203908
aI4
aa(lp843
F-310.4170837402344
aF31.519620895385742
aF-5.162635773196915
aF1.5305176655394868
aa(lp844
F-307.49920654296875
aF30.059099197387695
aF-2.3644314343225763
aF1.5605932967272877
aa(lp845
F-1.0
aF-1.0
aF-1.0
aaa(lp846
(lp847
F-105.52571283365984
aF21.555516221260042
aF259.6191296230937
aF42.0
aF-179.9231783203908
aI4
aa(lp848
F-310.22802734375
aF31.502775192260742
aF-4.669268272924716
aF1.4909947575904374
aa(lp849
F-307.3065185546875
aF30.05056381225586
aF-2.3439256970874616
aF1.515465167731778
aa(lp850
F-1.0
aF-1.0
aF-1.0
aaa(lp851
(lp852
F-105.52571283365984
aF21.555516221260042
aF259.6191296230937
aF42.0
aF-179.9231783203908
aI4
aa(lp853
F-310.09674072265625
aF31.491512298583984
aF-4.689914806581681
aF1.4293028741030886
aa(lp854
F-307.1728210449219
aF30.04493522644043
aF-2.132017046225944
aF1.4507026809446208
aa(lp855
F-1.0
aF-1.0
aF-1.0
aaa(lp856
(lp857
F-105.52571283365984
aF21.555516221260042
aF259.6191296230937
aF42.0
aF-179.9231783203908
aI4
aa(lp858
F-309.9104309082031
aF31.47549819946289
aF-4.512840246300583
aF1.2722976957033383
aa(lp859
F-306.9825744628906
aF30.037628173828125
aF-1.9170715267281497
aF1.2968766747156995
aa(lp860
F-1.0
aF-1.0
aF-1.0
aaa(lp861
(lp862
F-105.52571283365984
aF21.555516221260042
aF259.6191296230937
aF42.0
aF-179.9231783203908
aI4
aa(lp863
F-309.79827880859375
aF31.46589469909668
aF-4.4557168900411925
aF1.167797837976724
aa(lp864
F-306.8679504394531
aF30.033592224121094
aF-1.8108732302136095
aF1.1895331694947464
aa(lp865
F-1.0
aF-1.0
aF-1.0
aaa(lp866
(lp867
F-105.52571283365984
aF21.555516221260042
aF259.6191296230937
aF42.0
aF-179.9231783203908
aI4
aa(lp868
F-309.6458740234375
aF31.452987670898438
aF-4.654691336550917
aF1.0213940877516532
aa(lp869
F-306.71240234375
aF30.0285701751709
aF-1.6471045238081403
aF1.039538267508381
aa(lp870
F-1.0
aF-1.0
aF-1.0
aaa(lp871
(lp872
F-105.52571283365984
aF21.555516221260042
aF259.6191296230937
aF42.0
aF-179.9231783203908
aI4
aa(lp873
F-309.5538330078125
aF31.445281982421875
aF-4.8321966395033895
aF0.933436052605119
aa(lp874
F-306.6187438964844
aF30.02573585510254
aF-1.494255865706665
aF0.9471475276166053
aa(lp875
F-1.0
aF-1.0
aF-1.0
aaa(lp876
(lp877
F-105.52571283365984
aF21.555516221260042
aF259.6191296230937
aF42.0
aF-179.9231783203908
aI4
aa(lp878
F-309.4390869140625
aF31.436080932617188
aF-3.8244803785067005
aF0.7982663332682445
aa(lp879
F-306.50213623046875
aF30.022146224975586
aF-2.0435640691116843
aF0.8056932663200507
aa(lp880
F-1.0
aF-1.0
aF-1.0
aaa(lp881
(lp882
F-105.52571283365984
aF21.555516221260042
aF259.6191296230937
aF42.0
aF-179.9231783203908
aI4
aa(lp883
F-309.331298828125
aF31.427474975585938
aF-5.868187135893541
aF0.7567636005973425
aa(lp884
F-306.3924255371094
aF30.019052505493164
aF-0.9596068447146858
aF0.7439328116657989
aa(lp885
F-1.0
aF-1.0
aF-1.0
aaa(lp886
(lp887
F-105.52571283365984
aF21.555516221260042
aF259.6191296230937
aF42.0
aF-179.9231783203908
aI4
aa(lp888
F-309.2643737792969
aF31.42206382751465
aF-5.189164348608329
aF0.7021992187124438
aa(lp889
F-306.3251037597656
aF30.01724624633789
aF-1.1718489188928354
aF0.7062138941246865
aa(lp890
F-1.0
aF-1.0
aF-1.0
aaa(lp891
(lp892
F-105.52571283365984
aF21.555516221260042
aF259.6191296230937
aF42.0
aF-179.9231783203908
aI4
aa(lp893
F-309.1639099121094
aF31.416061401367188
aF-1.7008645158774331
aF0.6665679907615624
aa(lp894
F-306.2236328125
aF30.014352798461914
aF-0.8816017608963554
aF0.6712836131178069
aa(lp895
F-1.0
aF-1.0
aF-1.0
aaa(lp896
(lp897
F-105.52571283365984
aF21.555516221260042
aF259.6191296230937
aF42.0
aF-179.9231783203908
aI4
aa(lp898
F-309.1082458496094
aF31.413986206054688
aF-1.8345518939325183
aF0.6167091322528582
aa(lp899
F-306.16754150390625
aF30.0136661529541
aF-0.8216810509132585
aF0.6225971648233568
aa(lp900
F-1.0
aF-1.0
aF-1.0
aaa(lp901
(lp902
F-105.52571283365984
aF21.555516221260042
aF259.6191296230937
aF42.0
aF-179.9231783203908
aI4
aa(lp903
F-309.0538330078125
aF31.4119815826416
aF-1.7486970345270578
aF0.5606438836479609
aa(lp904
F-306.1127014160156
aF30.012996673583984
aF-0.8474400473137419
aF0.5666762528121161
aa(lp905
F-1.0
aF-1.0
aF-1.0
aaa(lp906
(lp907
F-105.52571283365984
aF21.555516221260042
aF259.6191296230937
aF42.0
aF-179.9231783203908
aI4
aa(lp908
F-308.9881591796875
aF31.40721321105957
aF-4.966140889381495
aF0.39435113670105887
aa(lp909
F-306.04644775390625
aF30.01134490966797
aF-1.5430082255417625
aF0.4056979460220979
aa(lp910
F-1.0
aF-1.0
aF-1.0
aaa(lp911
(lp912
F-105.52571283365984
aF21.555516221260042
aF259.6191296230937
aF42.0
aF-179.9231783203908
aI4
aa(lp913
F-308.9473876953125
aF31.40390968322754
aF-6.077488690851881
aF0.27350685919913076
aa(lp914
F-306.0009765625
aF30.010528564453125
aF-0.992970088906871
aF0.5012059071215019
aa(lp915
F-1.0
aF-1.0
aF-1.0
aaa(lp916
(lp917
F-105.52571283365984
aF21.555516221260042
aF259.6191296230937
aF42.0
aF-179.9231783203908
aI4
aa(lp918
F-308.9163513183594
aF31.402862548828125
aF-3.273415129709778
aF0.24865885897300835
aa(lp919
F-305.8908996582031
aF30.008642196655273
aF-0.9920231443254462
aF1.1911871086131764
aa(lp920
F-1.0
aF-1.0
aF-1.0
aaa(lp921
(lp922
F-105.52571283365984
aF21.555516221260042
aF259.6191296230937
aF42.0
aF-179.9231783203908
aI4
aa(lp923
F-308.8861083984375
aF31.400297164916992
aF-7.5914550703216355
aF0.22265749268468446
aa(lp924
F-305.7195739746094
aF30.005695343017578
aF-0.9885317267730581
aF1.33323592326737
aa(lp925
F-1.0
aF-1.0
aF-1.0
aaa(lp926
(lp927
F-105.52571283365984
aF21.555516221260042
aF259.6191296230937
aF42.0
aF-179.9231783203908
aI4
aa(lp928
F-308.8674621582031
aF31.39964485168457
aF-3.653731061276134
aF0.2021814074325683
aa(lp929
F-305.60028076171875
aF30.003644943237305
aF-0.9871375834753862
aF1.3056079678765589
aa(lp930
F-1.0
aF-1.0
aF-1.0
aaa(lp931
(lp932
F-105.52571283365984
aF21.555516221260042
aF259.6191296230937
aF42.0
aF-179.9231783203908
aI4
aa(lp933
F-308.849609375
aF31.398624420166016
aF-7.203790060433403
aF0.18344281847712604
aa(lp934
F-305.4797668457031
aF30.001577377319336
aF-0.9863828445598845
aF1.2339534626281614
aa(lp935
F-1.0
aF-1.0
aF-1.0
aaa(lp936
(lp937
F-105.52571283365984
aF21.555516221260042
aF259.6191296230937
aF42.0
aF-179.9231783203908
aI4
aa(lp938
F-308.8270568847656
aF31.397823333740234
aF-0.8240801260346691
aF0.15464383985753746
aa(lp939
F-305.3208923339844
aF29.998844146728516
aF-0.9855323846644948
aF1.1011212360252436
aa(lp940
F-1.0
aF-1.0
aF-1.0
aaa(lp941
(lp942
F-105.52571283365984
aF21.555516221260042
aF259.6191296230937
aF42.0
aF-179.9231783203908
aI4
aa(lp943
F-308.8140869140625
aF31.397146224975586
aF-4.684155598450054
aF0.13692959879203276
aa(lp944
F-305.22601318359375
aF29.997215270996094
aF-0.9852993745860493
aF1.0089071257968845
aa(lp945
F-1.0
aF-1.0
aF-1.0
aaa(lp946
(lp947
F-105.52571283365984
aF21.555516221260042
aF259.6191296230937
aF42.0
aF-179.9231783203908
aI4
aa(lp948
F-308.7980651855469
aF31.396080017089844
aF-4.644747816888917
aF0.111725301923945
aa(lp949
F-305.1030578613281
aF29.995101928710938
aF-0.985358340032849
aF0.8798663572143743
aa(lp950
F-1.0
aF-1.0
aF-1.0
aaa(lp951
(lp952
F-105.52571283365984
aF21.555516221260042
aF259.6191296230937
aF42.0
aF-179.9231783203908
aI4
aa(lp953
F-308.78564453125
aF31.3952579498291
aF-0.7936175399750026
aF0.08731722248265893
aa(lp954
F-304.99981689453125
aF29.993324279785156
aF-0.9856584239972155
aF0.7651600539142261
aa(lp955
F-1.0
aF-1.0
aF-1.0
aaa(lp956
(lp957
F-105.52571283365984
aF21.555516221260042
aF259.6191296230937
aF42.0
aF-179.9231783203908
aI4
aa(lp958
F-308.7757263183594
aF31.394786834716797
aF-4.515263332167006
aF0.06237919692384087
aa(lp959
F-304.9049987792969
aF29.9916934967041
aF-0.9862719405889276
aF0.6551961028893918
aa(lp960
F-1.0
aF-1.0
aF-1.0
aaa.